target datalayout = "e-m:e-p270:32:32-p271:32:32-p272:64:64-i64:64-i128:128-f80:128-n8:16:32:64-S128"
target triple = "x86_64-pc-linux-gnu"

@.str.22 = private unnamed_addr constant [9 x i8] c"ppp_hdlc\00", align 1
@ppp_raw_hdlc_handle = internal global ptr null, align 8
@.str.24 = private unnamed_addr constant [10 x i8] c"gre.proto\00", align 1
@.str.25 = private unnamed_addr constant [9 x i8] c"usb.bulk\00", align 1
@.str.26 = private unnamed_addr constant [22 x i8] c"PPP USB bulk endpoint\00", align 1
@.str.27 = private unnamed_addr constant [13 x i8] c"ppp_usb_bulk\00", align 1
@proto_ppp = internal global i32 0, align 4
@.str.28 = private unnamed_addr constant [11 x i8] c"wtap_encap\00", align 1
@.str.29 = private unnamed_addr constant [10 x i8] c"sll.ltype\00", align 1
@.str.30 = private unnamed_addr constant [9 x i8] c"fr.nlpid\00", align 1
@.str.31 = private unnamed_addr constant [6 x i8] c"chdlc\00", align 1
@chdlc_cap_handle = internal global ptr null, align 8

; Function Attrs: null_pointer_is_valid sspstrong uwtable
define hidden void @proto_reg_handoff_ppp_raw_hdlc() #1 {
  %1 = alloca ptr, align 8
  call void @llvm.lifetime.start.p0(i64 8, ptr %1) #6
  %2 = load ptr, ptr @ppp_raw_hdlc_handle, align 8
  call void @dissector_add_uint(ptr noundef @.str.24, i32 noundef 34945, ptr noundef %2)
  %3 = load ptr, ptr @ppp_raw_hdlc_handle, align 8
  call void @dissector_add_uint(ptr noundef @.str.24, i32 noundef 35026, ptr noundef %3)
  %4 = load i32, ptr @proto_ppp, align 4
  call void @heur_dissector_add(ptr noundef @.str.25, ptr noundef @dissect_ppp_usb, ptr noundef @.str.26, ptr noundef @.str.27, i32 noundef %4, i32 noundef 0)
  %5 = call ptr @find_capture_dissector(ptr noundef @.str.22)
  store ptr %5, ptr %1, align 8
  %6 = load ptr, ptr %1, align 8
  call void @capture_dissector_add_uint(ptr noundef @.str.28, i32 noundef 4, ptr noundef %6)
  %7 = load ptr, ptr %1, align 8
  call void @capture_dissector_add_uint(ptr noundef @.str.29, i32 noundef 7, ptr noundef %7)
  %8 = load ptr, ptr %1, align 8
  call void @capture_dissector_add_uint(ptr noundef @.str.30, i32 noundef 207, ptr noundef %8)
  %9 = call ptr @find_capture_dissector(ptr noundef @.str.31)
  store ptr %9, ptr @chdlc_cap_handle, align 8
  call void @llvm.lifetime.end.p0(i64 8, ptr %1) #6
  ret void
}