; Function Attrs: null_pointer_is_valid sspstrong uwtable
define hidden void @proto_reg_handoff_ppp_raw_hdlc() local_unnamed_addr #1 {
  %1 = load ptr, ptr @ppp_raw_hdlc_handle, align 8
  tail call void @dissector_add_uint(ptr noundef nonnull @.str.24, i32 noundef 34945, ptr noundef %1)
  %2 = load ptr, ptr @ppp_raw_hdlc_handle, align 8
  tail call void @dissector_add_uint(ptr noundef nonnull @.str.24, i32 noundef 35026, ptr noundef %2)
  %3 = load i32, ptr @proto_ppp, align 4
  tail call void @heur_dissector_add(ptr noundef nonnull @.str.25, ptr noundef nonnull @dissect_ppp_usb, ptr noundef nonnull @.str.26, ptr noundef nonnull @.str.27, i32 noundef %3, i32 noundef 0)
  %4 = tail call ptr @find_capture_dissector(ptr noundef nonnull @.str.22)
  tail call void @capture_dissector_add_uint(ptr noundef nonnull @.str.28, i32 noundef 4, ptr noundef %4)
  tail call void @capture_dissector_add_uint(ptr noundef nonnull @.str.29, i32 noundef 7, ptr noundef %4)
  tail call void @capture_dissector_add_uint(ptr noundef nonnull @.str.30, i32 noundef 207, ptr noundef %4)
  %5 = tail call ptr @find_capture_dissector(ptr noundef nonnull @.str.31)
  store ptr %5, ptr @chdlc_cap_handle, align 8
  ret void
}